; Function Attrs: mustprogress uwtable
define hidden void @_ZN6Assimp4D3MF12D3MFExporter12addFileInZipERKNSt7__cxx1112basic_stringIcSt11char_traitsIcESaIcEEES9_(ptr noundef nonnull readonly align 8 captures(none) dereferenceable(1224) %0, ptr noundef nonnull readonly align 8 captures(none) dereferenceable(32) %1, ptr noundef nonnull readonly align 8 captures(none) dereferenceable(32) %2) local_unnamed_addr #0 align 2 personality ptr @__gxx_personality_v0 {
  %4 = getelementptr inbounds nuw i8, ptr %0, i64 32
  %5 = load ptr, ptr %4, align 8
  %6 = icmp eq ptr %5, null
  br i1 %6, label %7, label %12

7:                                                ; preds = %3
  %8 = tail call ptr @__cxa_allocate_exception(i64 16) #20
  invoke void @_ZN17DeadlyExportErrorC2IJRA44_KcEEEDpOT_(ptr noundef nonnull align 8 dereferenceable(16) %8, ptr noundef nonnull align 1 dereferenceable(44) @.str.68)
          to label %9 unwind label %10

9:                                                ; preds = %7
  tail call void @__cxa_throw(ptr nonnull %8, ptr nonnull @_ZTI17DeadlyExportError, ptr nonnull @_ZNSt13runtime_errorD2Ev) #21
  unreachable

10:                                               ; preds = %7
  %11 = landingpad { ptr, i32 }
          cleanup
  tail call void @__cxa_free_exception(ptr nonnull %8) #20
  resume { ptr, i32 } %11

12:                                               ; preds = %3
  %13 = load ptr, ptr %1, align 8
  %14 = tail call i32 @zip_entry_open(ptr noundef nonnull %5, ptr noundef %13)
  %15 = load ptr, ptr %4, align 8
  %16 = load ptr, ptr %2, align 8
  %17 = getelementptr inbounds nuw i8, ptr %2, i64 8
  %18 = load i64, ptr %17, align 8
  %19 = tail call i32 @zip_entry_write(ptr noundef %15, ptr noundef %16, i64 noundef %18)
  %20 = load ptr, ptr %4, align 8
  %21 = tail call i32 @zip_entry_close(ptr noundef %20)
  ret void
}